; ModuleID = 'source-C-CXX/24/1049.cpp'
source_filename = "source-C-CXX/24/1049.cpp"
target datalayout = "e-m:e-p270:32:32-p271:32:32-p272:64:64-i64:64-f80:128-n8:16:32:64-S128"
target triple = "x86_64-pc-linux-gnu"

%"class.std::ios_base::Init" = type { i8 }
%"class.std::basic_istream" = type { i32 (...)**, i64, %"class.std::basic_ios" }
%"class.std::basic_ios" = type { %"class.std::ios_base", %"class.std::basic_ostream"*, i8, i8, %"class.std::basic_streambuf"*, %"class.std::ctype"*, %"class.std::num_put"*, %"class.std::num_get"* }
%"class.std::ios_base" = type { i32 (...)**, i64, i64, i32, i32, i32, %"struct.std::ios_base::_Callback_list"*, %"struct.std::ios_base::_Words", [8 x %"struct.std::ios_base::_Words"], i32, %"struct.std::ios_base::_Words"*, %"class.std::locale" }
%"struct.std::ios_base::_Callback_list" = type { %"struct.std::ios_base::_Callback_list"*, void (i32, %"class.std::ios_base"*, i32)*, i32, i32 }
%"struct.std::ios_base::_Words" = type { i8*, i64 }
%"class.std::locale" = type { %"class.std::locale::_Impl"* }
%"class.std::locale::_Impl" = type { i32, %"class.std::locale::facet"**, i64, %"class.std::locale::facet"**, i8** }
%"class.std::locale::facet" = type <{ i32 (...)**, i32, [4 x i8] }>
%"class.std::basic_ostream" = type { i32 (...)**, %"class.std::basic_ios" }
%"class.std::basic_streambuf" = type { i32 (...)**, i8*, i8*, i8*, i8*, i8*, i8*, %"class.std::locale" }
%"class.std::ctype" = type <{ %"class.std::locale::facet.base", [4 x i8], %struct.__locale_struct*, i8, [7 x i8], i32*, i32*, i16*, i8, [256 x i8], [256 x i8], i8, [6 x i8] }>
%"class.std::locale::facet.base" = type <{ i32 (...)**, i32 }>
%struct.__locale_struct = type { [13 x %struct.__locale_data*], i16*, i32*, i32*, [13 x i8*] }
%struct.__locale_data = type opaque
%"class.std::num_put" = type { %"class.std::locale::facet.base", [4 x i8] }
%"class.std::num_get" = type { %"class.std::locale::facet.base", [4 x i8] }

@_ZStL8__ioinit = internal global %"class.std::ios_base::Init" zeroinitializer, align 1
@__dso_handle = external hidden global i8
@_ZSt3cin = external global %"class.std::basic_istream", align 8
@_ZSt4cout = external global %"class.std::basic_ostream", align 8
@llvm.global_ctors = appending global [1 x { i32, void ()*, i8* }] [{ i32, void ()*, i8* } { i32 65535, void ()* @_GLOBAL__sub_I_1049.cpp, i8* null }]

declare void @_ZNSt8ios_base4InitC1Ev(%"class.std::ios_base::Init"* nonnull align 1 dereferenceable(1)) unnamed_addr #0

; Function Attrs: nounwind
declare void @_ZNSt8ios_base4InitD1Ev(%"class.std::ios_base::Init"* nonnull align 1 dereferenceable(1)) unnamed_addr #1

; Function Attrs: nofree nounwind
declare i32 @__cxa_atexit(void (i8*)*, i8*, i8*) local_unnamed_addr #2

; Function Attrs: mustprogress norecurse sspstrong uwtable
define dso_local i32 @main() local_unnamed_addr #3 {
  %1 = alloca [40 x i32], align 16
  %2 = bitcast [40 x i32]* %1 to i8*
  %3 = alloca [40 x i32], align 16
  %4 = bitcast [40 x i32]* %3 to i8*
  %5 = alloca i32, align 4
  call void @llvm.lifetime.start.p0i8(i64 160, i8* nonnull %2) #8
  call void @llvm.memset.p0i8.i64(i8* noundef nonnull align 16 dereferenceable(160) %2, i8 0, i64 160, i1 false)
  call void @llvm.lifetime.start.p0i8(i64 160, i8* nonnull %4) #8
  call void @llvm.memset.p0i8.i64(i8* noundef nonnull align 16 dereferenceable(160) %4, i8 0, i64 160, i1 false)
  %6 = bitcast i32* %5 to i8*
  call void @llvm.lifetime.start.p0i8(i64 4, i8* nonnull %6) #8
  store i32 0, i32* %5, align 4, !tbaa !5
  %7 = getelementptr inbounds [40 x i32], [40 x i32]* %1, i64 0, i64 0
  store i32 1, i32* %7, align 16, !tbaa !5
  %8 = getelementptr inbounds [40 x i32], [40 x i32]* %3, i64 0, i64 0
  store i32 1, i32* %8, align 16, !tbaa !5
  %9 = call nonnull align 8 dereferenceable(16) %"class.std::basic_istream"* @_ZNSirsERi(%"class.std::basic_istream"* nonnull align 8 dereferenceable(16) @_ZSt3cin, i32* nonnull align 4 dereferenceable(4) %5)
  %10 = load i32, i32* %5, align 4, !tbaa !5
  %11 = icmp eq i32 %10, 0
  br i1 %11, label %36, label %12

12:                                               ; preds = %0, %33
  %13 = phi i32 [ %34, %33 ], [ %10, %0 ]
  br label %14

14:                                               ; preds = %12, %30
  %15 = phi i64 [ 0, %12 ], [ %31, %30 ]
  %16 = getelementptr inbounds [40 x i32], [40 x i32]* %1, i64 0, i64 %15
  %17 = load i32, i32* %16, align 4, !tbaa !5
  %18 = getelementptr inbounds [40 x i32], [40 x i32]* %3, i64 0, i64 %15
  %19 = load i32, i32* %18, align 4, !tbaa !5
  %20 = add nsw i32 %19, %17
  %21 = icmp slt i32 %20, 10
  br i1 %21, label %22, label %24

22:                                               ; preds = %14
  store i32 %20, i32* %18, align 4, !tbaa !5
  %23 = add nuw nsw i64 %15, 1
  br label %30

24:                                               ; preds = %14
  %25 = add nsw i32 %20, -10
  store i32 %25, i32* %18, align 4, !tbaa !5
  %26 = add nuw nsw i64 %15, 1
  %27 = getelementptr inbounds [40 x i32], [40 x i32]* %3, i64 0, i64 %26
  %28 = load i32, i32* %27, align 4, !tbaa !5
  %29 = add nsw i32 %28, 1
  store i32 %29, i32* %27, align 4, !tbaa !5
  br label %30

30:                                               ; preds = %22, %24
  %31 = phi i64 [ %23, %22 ], [ %26, %24 ]
  %32 = icmp eq i64 %31, 40
  br i1 %32, label %33, label %14, !llvm.loop !9

33:                                               ; preds = %30
  call void @llvm.memcpy.p0i8.p0i8.i64(i8* noundef nonnull align 16 dereferenceable(160) %2, i8* noundef nonnull align 16 dereferenceable(160) %4, i64 160, i1 false)
  %34 = add nsw i32 %13, -1
  %35 = icmp eq i32 %34, 0
  br i1 %35, label %36, label %12, !llvm.loop !11

36:                                               ; preds = %33, %0
  store i32 0, i32* %5, align 4, !tbaa !5
  br label %37

37:                                               ; preds = %36, %49
  %38 = phi i32 [ 0, %36 ], [ %50, %49 ]
  %39 = phi i64 [ 39, %36 ], [ %51, %49 ]
  %40 = icmp eq i32 %38, 0
  %41 = getelementptr inbounds [40 x i32], [40 x i32]* %1, i64 0, i64 %39
  %42 = load i32, i32* %41, align 4, !tbaa !5
  %43 = icmp eq i32 %42, 0
  %44 = select i1 %40, i1 %43, i1 false
  br i1 %44, label %49, label %45

45:                                               ; preds = %37
  %46 = call nonnull align 8 dereferenceable(8) %"class.std::basic_ostream"* @_ZNSolsEi(%"class.std::basic_ostream"* nonnull align 8 dereferenceable(8) @_ZSt4cout, i32 %42)
  %47 = load i32, i32* %5, align 4, !tbaa !5
  %48 = add nsw i32 %47, 1
  store i32 %48, i32* %5, align 4, !tbaa !5
  br label %49

49:                                               ; preds = %37, %45
  %50 = phi i32 [ %48, %45 ], [ 0, %37 ]
  %51 = add nsw i64 %39, -1
  %52 = icmp eq i64 %39, 0
  br i1 %52, label %53, label %37, !llvm.loop !12

53:                                               ; preds = %49
  call void @llvm.lifetime.end.p0i8(i64 4, i8* nonnull %6) #8
  call void @llvm.lifetime.end.p0i8(i64 160, i8* nonnull %4) #8
  call void @llvm.lifetime.end.p0i8(i64 160, i8* nonnull %2) #8
  ret i32 0
}

; Function Attrs: argmemonly mustprogress nofree nosync nounwind willreturn
declare void @llvm.lifetime.start.p0i8(i64 immarg, i8* nocapture) #4

; Function Attrs: argmemonly mustprogress nofree nounwind willreturn writeonly
declare void @llvm.memset.p0i8.i64(i8* nocapture writeonly, i8, i64, i1 immarg) #5

declare nonnull align 8 dereferenceable(16) %"class.std::basic_istream"* @_ZNSirsERi(%"class.std::basic_istream"* nonnull align 8 dereferenceable(16), i32* nonnull align 4 dereferenceable(4)) local_unnamed_addr #0

declare nonnull align 8 dereferenceable(8) %"class.std::basic_ostream"* @_ZNSolsEi(%"class.std::basic_ostream"* nonnull align 8 dereferenceable(8), i32) local_unnamed_addr #0

; Function Attrs: argmemonly mustprogress nofree nosync nounwind willreturn
declare void @llvm.lifetime.end.p0i8(i64 immarg, i8* nocapture) #4

; Function Attrs: sspstrong uwtable
define internal void @_GLOBAL__sub_I_1049.cpp() #6 section ".text.startup" {
  tail call void @_ZNSt8ios_base4InitC1Ev(%"class.std::ios_base::Init"* nonnull align 1 dereferenceable(1) @_ZStL8__ioinit)
  %1 = tail call i32 @__cxa_atexit(void (i8*)* bitcast (void (%"class.std::ios_base::Init"*)* @_ZNSt8ios_base4InitD1Ev to void (i8*)*), i8* getelementptr inbounds (%"class.std::ios_base::Init", %"class.std::ios_base::Init"* @_ZStL8__ioinit, i64 0, i32 0), i8* nonnull @__dso_handle) #8
  ret void
}

; Function Attrs: argmemonly nofree nounwind willreturn
declare void @llvm.memcpy.p0i8.p0i8.i64(i8* noalias nocapture writeonly, i8* noalias nocapture readonly, i64, i1 immarg) #7


!llvm.module.flags = !{!0, !1, !2, !3}
!llvm.ident = !{!4}

!0 = !{i32 1, !"wchar_size", i32 4}
!1 = !{i32 7, !"PIC Level", i32 2}
!2 = !{i32 7, !"PIE Level", i32 2}
!3 = !{i32 7, !"uwtable", i32 1}
!4 = !{!"clang version 13.0.0"}
!5 = !{!6, !6, i64 0}
!6 = !{!"int", !7, i64 0}
!7 = !{!"omnipotent char", !8, i64 0}
!8 = !{!"Simple C++ TBAA"}
!9 = distinct !{!9, !10}
!10 = !{!"llvm.loop.mustprogress"}
!11 = distinct !{!11, !10}
!12 = distinct !{!12, !10}
